; Function Attrs: nounwind uwtable
define internal i32 @tftp_do(ptr noundef %0, ptr noundef writeonly captures(none) initializes((0, 1)) %1) #0 {
  %3 = getelementptr inbounds nuw i8, ptr %0, i64 24
  %4 = load ptr, ptr %3, align 8, !tbaa !86
  store i8 0, ptr %1, align 1, !tbaa !87
  %5 = getelementptr inbounds nuw i8, ptr %4, i64 1088
  %6 = load ptr, ptr %5, align 8, !tbaa !85
  %.not = icmp eq ptr %6, null
  br i1 %.not, label %7, label %.thread

7:                                                ; preds = %2
  %8 = tail call i32 @tftp_connect(ptr noundef nonnull %0, ptr noundef nonnull %1)
  %.not18 = icmp eq i32 %8, 0
  br i1 %.not18, label %9, label %21

9:                                                ; preds = %7
  %.pr = load ptr, ptr %5, align 8, !tbaa !85
  %.not19 = icmp eq ptr %.pr, null
  br i1 %.not19, label %21, label %..thread_crit_edge

..thread_crit_edge:                               ; preds = %9
  %.pre = load ptr, ptr %3, align 8, !tbaa !86
  %.phi.trans.insert = getelementptr inbounds nuw i8, ptr %.pre, i64 1088
  %.pre23 = load ptr, ptr %.phi.trans.insert, align 8, !tbaa !85
  br label %.thread

.thread:                                          ; preds = %..thread_crit_edge, %2
  %10 = phi ptr [ %.pre23, %..thread_crit_edge ], [ %6, %2 ]
  %11 = phi ptr [ %.pr, %..thread_crit_edge ], [ %6, %2 ]
  store i8 0, ptr %1, align 1, !tbaa !87
  %12 = tail call fastcc i32 @tftp_state_machine(ptr noundef %10, i32 noundef 0)
  %13 = load i32, ptr %10, align 8, !tbaa !89
  %14 = icmp eq i32 %13, 3
  %15 = icmp ne i32 %12, 0
  %or.cond.i = select i1 %14, i1 true, i1 %15
  br i1 %or.cond.i, label %tftp_perform.exit, label %tftp_perform.exit.thread

tftp_perform.exit.thread:                         ; preds = %.thread
  %16 = tail call i32 @tftp_multi_statemach(ptr noundef nonnull %0, ptr noundef nonnull %1)
  br label %17

tftp_perform.exit:                                ; preds = %.thread
  %.not20 = icmp eq i32 %12, 0
  br i1 %.not20, label %17, label %21

17:                                               ; preds = %tftp_perform.exit.thread, %tftp_perform.exit
  %18 = getelementptr inbounds nuw i8, ptr %11, i64 8
  %19 = load i32, ptr %18, align 8, !tbaa !94
  %20 = tail call fastcc i32 @tftp_translate_code(i32 noundef %19)
  br label %21

21:                                               ; preds = %tftp_perform.exit, %17, %9, %7
  %.0 = phi i32 [ %8, %7 ], [ 71, %9 ], [ %12, %tftp_perform.exit ], [ %20, %17 ]
  ret i32 %.0
}